; Function Attrs: nounwind uwtable
define internal void @cast_ptr_to_infer(ptr noundef %0, ptr noundef %1, ptr noundef %2) #0 {
  br label %4

4:                                                ; preds = %.backedge, %3
  %.0.i.in = phi ptr [ %1, %3 ], [ %.0.i.in.be, %.backedge ]
  %.0.i = load ptr, ptr %.0.i.in, align 8
  %5 = getelementptr inbounds i8, ptr %.0.i, i64 8
  %6 = load ptr, ptr %5, align 8
  %7 = load i32, ptr %6, align 8
  switch i32 %7, label %type_flatten.exit [
    i32 32, label %8
    i32 40, label %14
    i32 31, label %16
  ]

8:                                                ; preds = %4
  %9 = getelementptr inbounds i8, ptr %6, i64 56
  %10 = load ptr, ptr %9, align 8
  %11 = getelementptr inbounds i8, ptr %10, i64 96
  %12 = load ptr, ptr %11, align 8
  %13 = getelementptr inbounds i8, ptr %12, i64 8
  br label %.backedge

14:                                               ; preds = %4
  %15 = getelementptr inbounds i8, ptr %6, i64 56
  br label %.backedge

.backedge:                                        ; preds = %14, %8
  %.0.i.in.be = phi ptr [ %15, %14 ], [ %13, %8 ]
  br label %4

16:                                               ; preds = %4
  tail call void (ptr, ...) @error_exit(ptr noundef nonnull @.str.2, ptr noundef nonnull @.str.3, ptr noundef nonnull @__func__.type_flatten, ptr noundef nonnull @.str.10, i32 noundef 2984) #11
  unreachable

type_flatten.exit:                                ; preds = %4
  %17 = tail call ptr @type_infer_len_from_actual_type(ptr noundef %2, ptr noundef nonnull %6)
  tail call void @cast_no_check(ptr noundef %0, ptr noundef nonnull %1, ptr noundef %17, i1 noundef zeroext false)
  ret void
}